; ModuleID = '44/376.c'
source_filename = "44/376.c"
target datalayout = "e-m:e-p270:32:32-p271:32:32-p272:64:64-i64:64-f80:128-n8:16:32:64-S128"
target triple = "x86_64-pc-linux-gnu"

@.str = private unnamed_addr constant [3 x i8] c"%d\00", align 1
@.str.1 = private unnamed_addr constant [4 x i8] c"%d\0A\00", align 1

; Function Attrs: noinline nounwind uwtable
define dso_local i32 @r(i32 %0, i32 %1) #0 {
  %3 = alloca i32, align 4
  %4 = alloca i32, align 4
  %5 = alloca i32, align 4
  %6 = alloca i32, align 4
  %7 = alloca i32, align 4
  %8 = alloca i32, align 4
  store i32 %0, i32* %4, align 4
  store i32 %1, i32* %5, align 4
  %9 = load i32, i32* %4, align 4
  %10 = icmp slt i32 %9, 10
  br i1 %10, label %11, label %15

11:                                               ; preds = %2
  %12 = load i32, i32* %5, align 4
  %13 = load i32, i32* %4, align 4
  %14 = add nsw i32 %12, %13
  store i32 %14, i32* %3, align 4
  br label %39

15:                                               ; preds = %2
  store i32 1, i32* %8, align 4
  store i32 1, i32* %6, align 4
  br label %16

16:                                               ; preds = %24, %15
  %17 = load i32, i32* %8, align 4
  %18 = load i32, i32* %4, align 4
  %19 = icmp sgt i32 %17, %18
  br i1 %19, label %20, label %21

20:                                               ; preds = %16
  br label %27

21:                                               ; preds = %16
  %22 = load i32, i32* %8, align 4
  %23 = mul nsw i32 %22, 10
  store i32 %23, i32* %8, align 4
  br label %24

24:                                               ; preds = %21
  %25 = load i32, i32* %6, align 4
  %26 = add nsw i32 %25, 1
  store i32 %26, i32* %6, align 4
  br label %16

27:                                               ; preds = %20
  %28 = load i32, i32* %4, align 4
  %29 = srem i32 %28, 10
  %30 = load i32, i32* %8, align 4
  %31 = sdiv i32 %30, 10
  %32 = mul nsw i32 %29, %31
  %33 = load i32, i32* %5, align 4
  %34 = add nsw i32 %33, %32
  store i32 %34, i32* %5, align 4
  %35 = load i32, i32* %4, align 4
  %36 = sdiv i32 %35, 10
  %37 = load i32, i32* %5, align 4
  %38 = call i32 @r(i32 %36, i32 %37)
  store i32 %38, i32* %3, align 4
  br label %39

39:                                               ; preds = %27, %11
  %40 = load i32, i32* %3, align 4
  ret i32 %40
}

; Function Attrs: noinline nounwind uwtable
define dso_local i32 @main() #0 {
  %1 = alloca i32, align 4
  %2 = alloca i32, align 4
  %3 = alloca i32, align 4
  store i32 0, i32* %1, align 4
  store i32 0, i32* %3, align 4
  br label %4

4:                                                ; preds = %23, %0
  %5 = load i32, i32* %3, align 4
  %6 = icmp slt i32 %5, 6
  br i1 %6, label %7, label %26

7:                                                ; preds = %4
  %8 = call i32 (i8*, ...) @__isoc99_scanf(i8* getelementptr inbounds ([3 x i8], [3 x i8]* @.str, i64 0, i64 0), i32* %2)
  %9 = load i32, i32* %2, align 4
  %10 = icmp slt i32 %9, 0
  br i1 %10, label %11, label %18

11:                                               ; preds = %7
  %12 = load i32, i32* %2, align 4
  %13 = sub nsw i32 0, %12
  store i32 %13, i32* %2, align 4
  %14 = load i32, i32* %2, align 4
  %15 = call i32 @r(i32 %14, i32 0)
  %16 = sub nsw i32 0, %15
  %17 = call i32 (i8*, ...) @printf(i8* getelementptr inbounds ([4 x i8], [4 x i8]* @.str.1, i64 0, i64 0), i32 %16)
  br label %22

18:                                               ; preds = %7
  %19 = load i32, i32* %2, align 4
  %20 = call i32 @r(i32 %19, i32 0)
  %21 = call i32 (i8*, ...) @printf(i8* getelementptr inbounds ([4 x i8], [4 x i8]* @.str.1, i64 0, i64 0), i32 %20)
  br label %22

22:                                               ; preds = %18, %11
  br label %23

23:                                               ; preds = %22
  %24 = load i32, i32* %3, align 4
  %25 = add nsw i32 %24, 1
  store i32 %25, i32* %3, align 4
  br label %4

26:                                               ; preds = %4
  ret i32 0
}

declare dso_local i32 @__isoc99_scanf(i8*, ...) #1

declare dso_local i32 @printf(i8*, ...) #1


!llvm.module.flags = !{!0}
!llvm.ident = !{!1}

!0 = !{i32 1, !"wchar_size", i32 4}
!1 = !{!"clang version 10.0.0-4ubuntu1 "}
